	.file	"demo.c"
	.text
	.globl	fun
	.type	fun, @function
fun:
.LFB6:
	.cfi_startproc
	pushl	%ebp
	.cfi_def_cfa_offset 8
	.cfi_offset 5, -8
	movl	%esp, %ebp
	.cfi_def_cfa_register 5
	call	__x86.get_pc_thunk.ax
	addl	$_GLOBAL_OFFSET_TABLE_, %eax
	movl	12(%ebp), %eax
	movl	(%eax), %edx
	movl	8(%ebp), %eax
	addl	%edx, %eax
	popl	%ebp
	.cfi_restore 5
	.cfi_def_cfa 4, 4
	ret
	.cfi_endproc
.LFE6:
	.size	fun, .-fun
	.globl	call_fun
	.type	call_fun, @function
call_fun:
.LFB7:
	.cfi_startproc
	pushl	%ebp
	.cfi_def_cfa_offset 8
	.cfi_offset 5, -8
	movl	%esp, %ebp
	.cfi_def_cfa_register 5
	call	__x86.get_pc_thunk.ax
	addl	$_GLOBAL_OFFSET_TABLE_, %eax
	leal	12(%ebp), %eax
	pushl	%eax
	pushl	8(%ebp)
	call	fun
	addl	$8, %esp
	leave
	.cfi_restore 5
	.cfi_def_cfa 4, 4
	ret
	.cfi_endproc
.LFE7:
	.size	call_fun, .-call_fun
	.globl	main
	.type	main, @function
main:
.LFB8:
	.cfi_startproc
	pushl	%ebp
	.cfi_def_cfa_offset 8
	.cfi_offset 5, -8
	movl	%esp, %ebp
	.cfi_def_cfa_register 5
	subl	$16, %esp
	call	__x86.get_pc_thunk.ax
	addl	$_GLOBAL_OFFSET_TABLE_, %eax
	movl	$10, -8(%ebp)
	movl	$20, -4(%ebp)
	pushl	-4(%ebp)
	pushl	-8(%ebp)
	call	call_fun
	addl	$8, %esp
	movl	$0, %eax
	leave
	.cfi_restore 5
	.cfi_def_cfa 4, 4
	ret
	.cfi_endproc
.LFE8:
	.size	main, .-main
	.section	.text.__x86.get_pc_thunk.ax,"axG",@progbits,__x86.get_pc_thunk.ax,comdat
	.globl	__x86.get_pc_thunk.ax
	.hidden	__x86.get_pc_thunk.ax
	.type	__x86.get_pc_thunk.ax, @function
__x86.get_pc_thunk.ax:
.LFB9:
	.cfi_startproc
	movl	(%esp), %eax
	ret
	.cfi_endproc
.LFE9:
	.ident	"GCC: (Ubuntu 13.2.0-23ubuntu4) 13.2.0"
	.section	.note.GNU-stack,"",@progbits
